; Function Attrs: nounwind uwtable
define range(i32 0, 2) i32 @OCSP_RESPID_match(ptr noundef readonly captures(none) %0, ptr noundef %1) local_unnamed_addr #0 {
  %3 = icmp eq ptr %1, null
  br i1 %3, label %10, label %4

4:                                                ; preds = %2
  %5 = getelementptr inbounds nuw i8, ptr %1, i64 368
  %6 = load ptr, ptr %5, align 8, !tbaa !54
  %7 = getelementptr inbounds nuw i8, ptr %1, i64 376
  %8 = load ptr, ptr %7, align 8, !tbaa !74
  %9 = tail call i32 @OCSP_RESPID_match_ex(ptr noundef %0, ptr noundef nonnull %1, ptr noundef %6, ptr noundef %8)
  br label %10

10:                                               ; preds = %2, %4
  %.0 = phi i32 [ %9, %4 ], [ 0, %2 ]
  ret i32 %.0
}